; Function Attrs: mustprogress nofree norecurse nosync nounwind willreturn memory(argmem: read) uwtable
define noundef i32 @_Z6cvCeilRKN2cv9softfloatE(ptr nocapture noundef nonnull readonly align 4 dereferenceable(4) %0) local_unnamed_addr #4 {
  %2 = load i32, ptr %0, align 4
  %3 = zext i32 %2 to i64
  %4 = icmp slt i32 %2, 0
  %5 = lshr i64 %3, 23
  %6 = and i64 %5, 255
  %7 = and i64 %3, 8388607
  %8 = icmp ne i64 %6, 255
  %9 = icmp eq i64 %7, 0
  %or.cond.not.i = or i1 %9, %8
  %spec.select.i = and i1 %4, %or.cond.not.i
  %.not.i = icmp eq i64 %6, 0
  %10 = shl nuw nsw i64 %7, 32
  %11 = or disjoint i64 %10, 36028797018963968
  %12 = select i1 %.not.i, i64 %10, i64 %11
  %13 = icmp ult i64 %6, 170
  br i1 %13, label %14, label %_ZN2cvL25softfloat_shiftRightJam64Emm.exit.i

14:                                               ; preds = %1
  %15 = icmp ugt i64 %6, 107
  br i1 %15, label %16, label %24

16:                                               ; preds = %14
  %.neg.i = add nuw nsw i64 %5, 22
  %17 = sub nuw nsw i64 170, %6
  %18 = lshr i64 %11, %17
  %19 = and i64 %.neg.i, 63
  %20 = shl i64 %11, %19
  %21 = icmp ne i64 %20, 0
  %22 = zext i1 %21 to i64
  %23 = or i64 %18, %22
  br label %_ZN2cvL25softfloat_shiftRightJam64Emm.exit.i

24:                                               ; preds = %14
  %25 = icmp ne i64 %12, 0
  %26 = zext i1 %25 to i64
  br label %_ZN2cvL25softfloat_shiftRightJam64Emm.exit.i

_ZN2cvL25softfloat_shiftRightJam64Emm.exit.i:     ; preds = %24, %16, %1
  %.017.i = phi i64 [ %12, %1 ], [ %23, %16 ], [ %26, %24 ]
  %27 = select i1 %spec.select.i, i64 0, i64 4095
  %28 = add nuw nsw i64 %.017.i, %27
  %.not.i.i = icmp ult i64 %28, 17592186044416
  br i1 %.not.i.i, label %29, label %35

29:                                               ; preds = %_ZN2cvL25softfloat_shiftRightJam64Emm.exit.i
  %30 = lshr i64 %28, 12
  %31 = sub nsw i64 0, %30
  %32 = select i1 %spec.select.i, i64 %31, i64 %30
  %sext.i.i = shl i64 %32, 32
  %33 = ashr exact i64 %sext.i.i, 32
  %.not32.i.i = icmp eq i64 %sext.i.i, 0
  %34 = icmp sgt i64 %33, -1
  %.not3334.i.i = xor i1 %spec.select.i, %34
  %or.cond.i.i = select i1 %.not32.i.i, i1 true, i1 %.not3334.i.i
  br i1 %or.cond.i.i, label %_ZN2cvL10f32_to_i32ENS_9softfloatEhb.exit, label %35

35:                                               ; preds = %29, %_ZN2cvL25softfloat_shiftRightJam64Emm.exit.i
  %36 = select i1 %spec.select.i, i64 -2147483648, i64 2147483647
  br label %_ZN2cvL10f32_to_i32ENS_9softfloatEhb.exit

_ZN2cvL10f32_to_i32ENS_9softfloatEhb.exit:        ; preds = %29, %35
  %.0.i.i = phi i64 [ %36, %35 ], [ %33, %29 ]
  %37 = trunc nsw i64 %.0.i.i to i32
  ret i32 %37
}